; Function Attrs: nounwind uwtable
define internal i64 @bzip2_filter_read(ptr noundef readonly captures(none) %0, ptr noundef writeonly captures(none) %1) #0 {
  %3 = alloca i64, align 8
  %4 = alloca i64, align 8
  %5 = getelementptr inbounds nuw i8, ptr %0, i64 40
  %6 = load ptr, ptr %5, align 8
  %7 = getelementptr inbounds nuw i8, ptr %6, i64 97
  %8 = load i8, ptr %7, align 1
  %.not = icmp eq i8 %8, 0
  br i1 %.not, label %10, label %9

9:                                                ; preds = %2
  store ptr null, ptr %1, align 8
  br label %101

10:                                               ; preds = %2
  %11 = getelementptr inbounds nuw i8, ptr %6, i64 80
  %12 = load ptr, ptr %11, align 8
  %13 = getelementptr inbounds nuw i8, ptr %6, i64 24
  store ptr %12, ptr %13, align 8
  %14 = getelementptr inbounds nuw i8, ptr %6, i64 88
  %15 = load i64, ptr %14, align 8
  %16 = trunc i64 %15 to i32
  %17 = getelementptr inbounds nuw i8, ptr %6, i64 32
  store i32 %16, ptr %17, align 8
  %18 = getelementptr inbounds nuw i8, ptr %6, i64 96
  %19 = getelementptr inbounds nuw i8, ptr %0, i64 16
  %20 = getelementptr inbounds nuw i8, ptr %6, i64 8
  br label %21

21:                                               ; preds = %89, %10
  %22 = load i8, ptr %18, align 8
  %.not53 = icmp eq i8 %22, 0
  br i1 %.not53, label %23, label %56

23:                                               ; preds = %21
  %24 = load ptr, ptr %19, align 8
  call void @llvm.lifetime.start.p0(i64 8, ptr nonnull %3)
  %25 = call ptr @__archive_read_filter_ahead(ptr noundef %24, i64 noundef 14, ptr noundef nonnull %3) #7
  %26 = icmp eq ptr %25, null
  br i1 %26, label %37, label %27

27:                                               ; preds = %23
  %bcmp.i = call i32 @bcmp(ptr noundef nonnull dereferenceable(3) %25, ptr noundef nonnull dereferenceable(3) @.str.1, i64 3)
  %.not.i = icmp eq i32 %bcmp.i, 0
  br i1 %.not.i, label %28, label %37

28:                                               ; preds = %27
  %29 = getelementptr inbounds nuw i8, ptr %25, i64 3
  %30 = load i8, ptr %29, align 1
  %31 = add i8 %30, -58
  %or.cond.i = icmp ult i8 %31, -9
  br i1 %or.cond.i, label %37, label %32

32:                                               ; preds = %28
  %33 = getelementptr inbounds nuw i8, ptr %25, i64 4
  %bcmp15.i = call i32 @bcmp(ptr noundef nonnull dereferenceable(6) %33, ptr noundef nonnull dereferenceable(6) @.str.2, i64 6)
  %34 = icmp eq i32 %bcmp15.i, 0
  br i1 %34, label %43, label %35

35:                                               ; preds = %32
  %bcmp16.i = call i32 @bcmp(ptr noundef nonnull dereferenceable(6) %33, ptr noundef nonnull dereferenceable(6) @.str.3, i64 6)
  %36 = icmp eq i32 %bcmp16.i, 0
  br i1 %36, label %43, label %37

37:                                               ; preds = %23, %27, %28, %35
  call void @llvm.lifetime.end.p0(i64 8, ptr nonnull %3)
  store i8 1, ptr %7, align 1
  %38 = load ptr, ptr %11, align 8
  store ptr %38, ptr %1, align 8
  %39 = load ptr, ptr %13, align 8
  %40 = ptrtoint ptr %39 to i64
  %41 = ptrtoint ptr %38 to i64
  %42 = sub i64 %40, %41
  br label %101

43:                                               ; preds = %35, %32
  call void @llvm.lifetime.end.p0(i64 8, ptr nonnull %3)
  %44 = call i32 @BZ2_bzDecompressInit(ptr noundef nonnull %6, i32 noundef 0, i32 noundef 0) #7
  %45 = sext i32 %44 to i64
  store i64 %45, ptr %4, align 8
  %46 = icmp eq i32 %44, -3
  br i1 %46, label %47, label %50

47:                                               ; preds = %43
  %48 = call i32 @BZ2_bzDecompressInit(ptr noundef nonnull %6, i32 noundef 0, i32 noundef 1) #7
  %49 = sext i32 %48 to i64
  store i64 %49, ptr %4, align 8
  br label %50

50:                                               ; preds = %47, %43
  %51 = phi i64 [ %49, %47 ], [ %45, %43 ]
  switch i64 %51, label %.loopexit.loopexit [
    i64 0, label %55
    i64 -2, label %.loopexit
    i64 -3, label %.loopexit57
    i64 -9, label %.loopexit58
  ]

.loopexit57:                                      ; preds = %50
  br label %.loopexit

.loopexit58:                                      ; preds = %50
  br label %.loopexit

.loopexit.loopexit:                               ; preds = %50
  br label %.loopexit

.loopexit:                                        ; preds = %50, %.loopexit.loopexit, %.loopexit58, %.loopexit57
  %52 = phi ptr [ @.str.10, %.loopexit57 ], [ @.str.10, %.loopexit58 ], [ @.str.9, %.loopexit.loopexit ], [ @.str.10, %50 ]
  %.049 = phi ptr [ @.str.6, %.loopexit57 ], [ @.str.7, %.loopexit58 ], [ null, %.loopexit.loopexit ], [ @.str.5, %50 ]
  %.0 = phi i32 [ 12, %.loopexit57 ], [ -1, %.loopexit58 ], [ -1, %.loopexit.loopexit ], [ -1, %50 ]
  %53 = getelementptr inbounds nuw i8, ptr %0, i64 24
  %54 = load ptr, ptr %53, align 8
  call void (ptr, i32, ptr, ...) @archive_set_error(ptr noundef %54, i32 noundef %.0, ptr noundef nonnull @.str.8, ptr noundef nonnull %52, ptr noundef %.049) #7
  br label %101

55:                                               ; preds = %50
  store i8 1, ptr %18, align 8
  br label %56

56:                                               ; preds = %55, %21
  %57 = load ptr, ptr %19, align 8
  %58 = call ptr @__archive_read_filter_ahead(ptr noundef %57, i64 noundef 1, ptr noundef nonnull %4) #7
  %59 = icmp eq ptr %58, null
  br i1 %59, label %60, label %63

60:                                               ; preds = %56
  %61 = getelementptr inbounds nuw i8, ptr %0, i64 24
  %62 = load ptr, ptr %61, align 8
  call void (ptr, i32, ptr, ...) @archive_set_error(ptr noundef %62, i32 noundef -1, ptr noundef nonnull @.str.11) #7
  br label %101

63:                                               ; preds = %56
  store ptr %58, ptr %6, align 8
  %64 = load i64, ptr %4, align 8
  %65 = trunc i64 %64 to i32
  store i32 %65, ptr %20, align 8
  %66 = icmp eq i64 %64, 0
  br i1 %66, label %67, label %73

67:                                               ; preds = %63
  store i8 1, ptr %7, align 1
  %68 = load ptr, ptr %11, align 8
  store ptr %68, ptr %1, align 8
  %69 = load ptr, ptr %13, align 8
  %70 = ptrtoint ptr %69 to i64
  %71 = ptrtoint ptr %68 to i64
  %72 = sub i64 %70, %71
  br label %101

73:                                               ; preds = %63
  %74 = ptrtoint ptr %58 to i64
  %75 = call i32 @BZ2_bzDecompress(ptr noundef nonnull %6) #7
  %76 = sext i32 %75 to i64
  store i64 %76, ptr %4, align 8
  %77 = load ptr, ptr %19, align 8
  %78 = load ptr, ptr %6, align 8
  %79 = ptrtoint ptr %78 to i64
  %80 = sub i64 %79, %74
  %81 = call i64 @__archive_read_filter_consume(ptr noundef %77, i64 noundef %80) #7
  %82 = load i64, ptr %4, align 8
  switch i64 %82, label %98 [
    i64 4, label %83
    i64 0, label %89
  ]

83:                                               ; preds = %73
  %84 = call i32 @BZ2_bzDecompressEnd(ptr noundef nonnull %6) #7
  %cond = icmp eq i32 %84, 0
  br i1 %cond, label %88, label %85

85:                                               ; preds = %83
  %86 = getelementptr inbounds nuw i8, ptr %0, i64 24
  %87 = load ptr, ptr %86, align 8
  call void (ptr, i32, ptr, ...) @archive_set_error(ptr noundef %87, i32 noundef -1, ptr noundef nonnull @.str.12) #7
  br label %101

88:                                               ; preds = %83
  store i8 0, ptr %18, align 8
  br label %89

89:                                               ; preds = %88, %73
  %90 = load i32, ptr %17, align 8
  %91 = icmp eq i32 %90, 0
  br i1 %91, label %92, label %21

92:                                               ; preds = %89
  %93 = load ptr, ptr %11, align 8
  store ptr %93, ptr %1, align 8
  %94 = load ptr, ptr %13, align 8
  %95 = ptrtoint ptr %94 to i64
  %96 = ptrtoint ptr %93 to i64
  %97 = sub i64 %95, %96
  br label %101

98:                                               ; preds = %73
  %99 = getelementptr inbounds nuw i8, ptr %0, i64 24
  %100 = load ptr, ptr %99, align 8
  call void (ptr, i32, ptr, ...) @archive_set_error(ptr noundef %100, i32 noundef -1, ptr noundef nonnull @.str.13) #7
  br label %101

101:                                              ; preds = %98, %92, %85, %67, %60, %.loopexit, %37, %9
  %.050 = phi i64 [ 0, %9 ], [ -30, %60 ], [ %72, %67 ], [ -30, %98 ], [ %97, %92 ], [ -30, %85 ], [ %42, %37 ], [ -30, %.loopexit ]
  ret i64 %.050
}